target datalayout = "e-m:e-p270:32:32-p271:32:32-p272:64:64-i64:64-i128:128-f80:128-n8:16:32:64-S128"
target triple = "x86_64-pc-linux-gnu"

%"class.cv::Rect_" = type { float, float, float, float }
%"class.cv::Point_" = type { float, float }
%"struct.std::_Vector_base" = type { %"struct.std::_Vector_base<cv::Point_<float>, std::allocator<cv::Point_<float>>>::_Vector_impl" }
%"struct.std::_Vector_base<cv::Point_<float>, std::allocator<cv::Point_<float>>>::_Vector_impl" = type { %"struct.std::_Vector_base<cv::Point_<float>, std::allocator<cv::Point_<float>>>::_Vector_impl_data" }
%"struct.std::_Vector_base<cv::Point_<float>, std::allocator<cv::Point_<float>>>::_Vector_impl_data" = type { ptr, ptr, ptr }

; Function Attrs: inlinehint mustprogress nounwind uwtable
define linkonce_odr noundef nonnull align 4 dereferenceable(4) ptr @_ZSt3minIfERKT_S2_S2_(ptr noundef nonnull align 4 dereferenceable(4) %0, ptr noundef nonnull align 4 dereferenceable(4) %1) #8 comdat {
  %3 = alloca ptr, align 8
  %4 = alloca ptr, align 8
  %5 = alloca ptr, align 8
  store ptr %0, ptr %4, align 8, !tbaa !24
  store ptr %1, ptr %5, align 8, !tbaa !24
  %6 = load ptr, ptr %5, align 8, !tbaa !24
  %7 = load float, ptr %6, align 4, !tbaa !12
  %8 = load ptr, ptr %4, align 8, !tbaa !24
  %9 = load float, ptr %8, align 4, !tbaa !12
  %10 = fcmp olt float %7, %9
  br i1 %10, label %11, label %13

11:                                               ; preds = %2
  %12 = load ptr, ptr %5, align 8, !tbaa !24
  store ptr %12, ptr %3, align 8
  br label %15

13:                                               ; preds = %2
  %14 = load ptr, ptr %4, align 8, !tbaa !24
  store ptr %14, ptr %3, align 8
  br label %15

15:                                               ; preds = %13, %11
  %16 = load ptr, ptr %3, align 8
  ret ptr %16
}

; Function Attrs: mustprogress nounwind uwtable
define linkonce_odr hidden noundef nonnull align 4 dereferenceable(8) ptr @_ZNSt6vectorIN2cv6Point_IfEESaIS2_EEixEm(ptr noundef nonnull align 8 dereferenceable(24) %0, i64 noundef %1) #4 comdat align 2 {
  %3 = alloca ptr, align 8
  %4 = alloca i64, align 8
  store ptr %0, ptr %3, align 8, !tbaa !9
  store i64 %1, ptr %4, align 8, !tbaa !26
  %5 = load ptr, ptr %3, align 8
  %6 = getelementptr inbounds nuw %"struct.std::_Vector_base", ptr %5, i32 0, i32 0
  %7 = getelementptr inbounds nuw %"struct.std::_Vector_base<cv::Point_<float>, std::allocator<cv::Point_<float>>>::_Vector_impl_data", ptr %6, i32 0, i32 0
  %8 = load ptr, ptr %7, align 8, !tbaa !28
  %9 = load i64, ptr %4, align 8, !tbaa !26
  %10 = getelementptr inbounds nuw %"class.cv::Point_", ptr %8, i64 %9
  ret ptr %10
}

; Function Attrs: inlinehint mustprogress nounwind uwtable
define linkonce_odr hidden void @_ZN2cv5Rect_IfEC2Ev(ptr noundef nonnull align 4 dereferenceable(16) %0) unnamed_addr #8 comdat align 2 {
  %2 = alloca ptr, align 8
  store ptr %0, ptr %2, align 8, !tbaa !22
  %3 = load ptr, ptr %2, align 8
  %4 = getelementptr inbounds nuw %"class.cv::Rect_", ptr %3, i32 0, i32 0
  store float 0.000000e+00, ptr %4, align 4, !tbaa !14
  %5 = getelementptr inbounds nuw %"class.cv::Rect_", ptr %3, i32 0, i32 1
  store float 0.000000e+00, ptr %5, align 4, !tbaa !16
  %6 = getelementptr inbounds nuw %"class.cv::Rect_", ptr %3, i32 0, i32 2
  store float 0.000000e+00, ptr %6, align 4, !tbaa !19
  %7 = getelementptr inbounds nuw %"class.cv::Rect_", ptr %3, i32 0, i32 3
  store float 0.000000e+00, ptr %7, align 4, !tbaa !21
  ret void
}

; Function Attrs: mustprogress uwtable
define hidden { <2 x float>, <2 x float> } @_ZN2cv3gtr9anno2rectESt6vectorINS_6Point_IfEESaIS3_EE(ptr noundef %0) #7 {
  %2 = alloca %"class.cv::Rect_", align 4
  %3 = alloca ptr, align 8
  store ptr %0, ptr %3, align 8, !tbaa !9
  call void @_ZN2cv5Rect_IfEC2Ev(ptr noundef nonnull align 4 dereferenceable(16) %2)
  %4 = call noundef nonnull align 4 dereferenceable(8) ptr @_ZNSt6vectorIN2cv6Point_IfEESaIS2_EEixEm(ptr noundef nonnull align 8 dereferenceable(24) %0, i64 noundef 0) #3
  %5 = getelementptr inbounds nuw %"class.cv::Point_", ptr %4, i32 0, i32 0
  %6 = call noundef nonnull align 4 dereferenceable(8) ptr @_ZNSt6vectorIN2cv6Point_IfEESaIS2_EEixEm(ptr noundef nonnull align 8 dereferenceable(24) %0, i64 noundef 1) #3
  %7 = getelementptr inbounds nuw %"class.cv::Point_", ptr %6, i32 0, i32 0
  %8 = call noundef nonnull align 4 dereferenceable(4) ptr @_ZSt3minIfERKT_S2_S2_(ptr noundef nonnull align 4 dereferenceable(4) %5, ptr noundef nonnull align 4 dereferenceable(4) %7)
  %9 = load float, ptr %8, align 4, !tbaa !12
  %10 = getelementptr inbounds nuw %"class.cv::Rect_", ptr %2, i32 0, i32 0
  store float %9, ptr %10, align 4, !tbaa !14
  %11 = call noundef nonnull align 4 dereferenceable(8) ptr @_ZNSt6vectorIN2cv6Point_IfEESaIS2_EEixEm(ptr noundef nonnull align 8 dereferenceable(24) %0, i64 noundef 0) #3
  %12 = getelementptr inbounds nuw %"class.cv::Point_", ptr %11, i32 0, i32 1
  %13 = call noundef nonnull align 4 dereferenceable(8) ptr @_ZNSt6vectorIN2cv6Point_IfEESaIS2_EEixEm(ptr noundef nonnull align 8 dereferenceable(24) %0, i64 noundef 2) #3
  %14 = getelementptr inbounds nuw %"class.cv::Point_", ptr %13, i32 0, i32 1
  %15 = call noundef nonnull align 4 dereferenceable(4) ptr @_ZSt3minIfERKT_S2_S2_(ptr noundef nonnull align 4 dereferenceable(4) %12, ptr noundef nonnull align 4 dereferenceable(4) %14)
  %16 = load float, ptr %15, align 4, !tbaa !12
  %17 = getelementptr inbounds nuw %"class.cv::Rect_", ptr %2, i32 0, i32 1
  store float %16, ptr %17, align 4, !tbaa !16
  %18 = call noundef nonnull align 4 dereferenceable(8) ptr @_ZNSt6vectorIN2cv6Point_IfEESaIS2_EEixEm(ptr noundef nonnull align 8 dereferenceable(24) %0, i64 noundef 0) #3
  %19 = getelementptr inbounds nuw %"class.cv::Point_", ptr %18, i32 0, i32 0
  %20 = load float, ptr %19, align 4, !tbaa !17
  %21 = call noundef nonnull align 4 dereferenceable(8) ptr @_ZNSt6vectorIN2cv6Point_IfEESaIS2_EEixEm(ptr noundef nonnull align 8 dereferenceable(24) %0, i64 noundef 1) #3
  %22 = getelementptr inbounds nuw %"class.cv::Point_", ptr %21, i32 0, i32 0
  %23 = load float, ptr %22, align 4, !tbaa !17
  %24 = fsub float %20, %23
  %25 = fpext float %24 to double
  %26 = call double @llvm.fabs.f64(double %25)
  %27 = fptrunc double %26 to float
  %28 = getelementptr inbounds nuw %"class.cv::Rect_", ptr %2, i32 0, i32 2
  store float %27, ptr %28, align 4, !tbaa !19
  %29 = call noundef nonnull align 4 dereferenceable(8) ptr @_ZNSt6vectorIN2cv6Point_IfEESaIS2_EEixEm(ptr noundef nonnull align 8 dereferenceable(24) %0, i64 noundef 0) #3
  %30 = getelementptr inbounds nuw %"class.cv::Point_", ptr %29, i32 0, i32 1
  %31 = load float, ptr %30, align 4, !tbaa !20
  %32 = call noundef nonnull align 4 dereferenceable(8) ptr @_ZNSt6vectorIN2cv6Point_IfEESaIS2_EEixEm(ptr noundef nonnull align 8 dereferenceable(24) %0, i64 noundef 2) #3
  %33 = getelementptr inbounds nuw %"class.cv::Point_", ptr %32, i32 0, i32 1
  %34 = load float, ptr %33, align 4, !tbaa !20
  %35 = fsub float %31, %34
  %36 = fpext float %35 to double
  %37 = call double @llvm.fabs.f64(double %36)
  %38 = fptrunc double %37 to float
  %39 = getelementptr inbounds nuw %"class.cv::Rect_", ptr %2, i32 0, i32 3
  store float %38, ptr %39, align 4, !tbaa !21
  %40 = load { <2 x float>, <2 x float> }, ptr %2, align 4
  ret { <2 x float>, <2 x float> } %40
}