; Function Attrs: mustprogress nofree norecurse nosync nounwind willreturn memory(read, inaccessiblemem: none) uwtable
define hidden { <2 x float>, <2 x float> } @_ZN2cv3gtr9anno2rectESt6vectorINS_6Point_IfEESaIS3_EE(ptr noundef readonly captures(none) %0) local_unnamed_addr #7 {
  %2 = load ptr, ptr %0, align 8, !tbaa !7
  %3 = getelementptr inbounds nuw i8, ptr %2, i64 8
  %4 = load float, ptr %3, align 4, !tbaa !11
  %5 = load float, ptr %2, align 4, !tbaa !11
  %6 = fcmp olt float %4, %5
  %7 = select i1 %6, float %4, float %5
  %.sroa.0.0.vec.insert = insertelement <2 x float> poison, float %7, i64 0
  %8 = getelementptr inbounds nuw i8, ptr %2, i64 4
  %9 = getelementptr inbounds nuw i8, ptr %2, i64 20
  %10 = load float, ptr %9, align 4, !tbaa !11
  %11 = load float, ptr %8, align 4, !tbaa !11
  %12 = fcmp olt float %10, %11
  %13 = select i1 %12, float %10, float %11
  %.sroa.0.4.vec.insert = insertelement <2 x float> %.sroa.0.0.vec.insert, float %13, i64 1
  %14 = fsub float %5, %4
  %15 = tail call float @llvm.fabs.f32(float %14)
  %.sroa.4.8.vec.insert = insertelement <2 x float> poison, float %15, i64 0
  %16 = fsub float %11, %10
  %17 = tail call float @llvm.fabs.f32(float %16)
  %.sroa.4.12.vec.insert = insertelement <2 x float> %.sroa.4.8.vec.insert, float %17, i64 1
  %.fca.0.insert = insertvalue { <2 x float>, <2 x float> } poison, <2 x float> %.sroa.0.4.vec.insert, 0
  %.fca.1.insert = insertvalue { <2 x float>, <2 x float> } %.fca.0.insert, <2 x float> %.sroa.4.12.vec.insert, 1
  ret { <2 x float>, <2 x float> } %.fca.1.insert
}